; Function Attrs: mustprogress uwtable
define noundef nonnull align 8 dereferenceable(88) ptr @_ZN8QuantLib12MakeSchedule13withFrequencyENS_9FrequencyE(ptr noundef nonnull returned align 8 dereferenceable(88) %this, i32 noundef %frequency) local_unnamed_addr #4 align 2 {
entry:
  %ref.tmp = alloca %"class.QuantLib::Period", align 8
  call void @llvm.lifetime.start.p0(i64 8, ptr nonnull %ref.tmp) #24
  call void @_ZN8QuantLib6PeriodC1ENS_9FrequencyE(ptr noundef nonnull align 4 dereferenceable(8) %ref.tmp, i32 noundef %frequency)
  %tenor_ = getelementptr inbounds nuw i8, ptr %this, i64 32
  %0 = load i8, ptr %tenor_, align 8, !tbaa !3, !range !9, !noundef !10
  %loadedv.i.i.i = trunc nuw i8 %0 to i1
  %1 = load i64, ptr %ref.tmp, align 8
  br i1 %loadedv.i.i.i, label %_ZN5boost8optionalIN8QuantLib6PeriodEEaSIS2_EENS_9enable_ifINS_7is_sameIS2_NS_5decayIT_E4typeEEERS3_E4typeEOS8_.exit, label %if.else.i.i

if.else.i.i:                                      ; preds = %entry
  store i8 1, ptr %tenor_, align 8, !tbaa !3
  br label %_ZN5boost8optionalIN8QuantLib6PeriodEEaSIS2_EENS_9enable_ifINS_7is_sameIS2_NS_5decayIT_E4typeEEERS3_E4typeEOS8_.exit

_ZN5boost8optionalIN8QuantLib6PeriodEEaSIS2_EENS_9enable_ifINS_7is_sameIS2_NS_5decayIT_E4typeEEERS3_E4typeEOS8_.exit: ; preds = %entry, %if.else.i.i
  %2 = getelementptr inbounds nuw i8, ptr %this, i64 36
  store i64 %1, ptr %2, align 4
  call void @llvm.lifetime.end.p0(i64 8, ptr nonnull %ref.tmp) #24
  ret ptr %this
}